; Function Attrs: nounwind uwtable
define internal range(i32 -30, 1) i32 @archive_write_newc_header(ptr noundef %0, ptr noundef %1) #0 {
  %3 = alloca ptr, align 8
  %4 = alloca i64, align 8
  call void @llvm.lifetime.start.p0(i64 8, ptr nonnull %3) #11
  call void @llvm.lifetime.start.p0(i64 8, ptr nonnull %4) #11
  %5 = tail call i32 @archive_entry_filetype(ptr noundef %1) #11
  %6 = icmp eq i32 %5, 0
  br i1 %6, label %7, label %11

7:                                                ; preds = %2
  %8 = tail call ptr @archive_entry_hardlink(ptr noundef %1) #11
  %9 = icmp eq ptr %8, null
  br i1 %9, label %10, label %11

10:                                               ; preds = %7
  tail call void (ptr, i32, ptr, ...) @archive_set_error(ptr noundef %0, i32 noundef -1, ptr noundef nonnull @.str.6) #11
  br label %49

11:                                               ; preds = %7, %2
  %12 = getelementptr inbounds nuw i8, ptr %0, i64 248
  %13 = load ptr, ptr %12, align 8, !tbaa !17
  %14 = getelementptr inbounds nuw i8, ptr %13, i64 16
  %15 = load ptr, ptr %14, align 8, !tbaa !27
  %16 = icmp eq ptr %15, null
  br i1 %16, label %17, label %get_sconv.exit

17:                                               ; preds = %11
  %18 = getelementptr inbounds nuw i8, ptr %13, i64 32
  %19 = load i32, ptr %18, align 8, !tbaa !29
  %.not.i = icmp eq i32 %19, 0
  br i1 %.not.i, label %20, label %._crit_edge.i

._crit_edge.i:                                    ; preds = %17
  %.phi.trans.insert.i = getelementptr inbounds nuw i8, ptr %13, i64 24
  %.pre.i = load ptr, ptr %.phi.trans.insert.i, align 8, !tbaa !30
  br label %get_sconv.exit

20:                                               ; preds = %17
  %21 = tail call ptr @archive_string_default_conversion_for_write(ptr noundef nonnull %0) #11
  %22 = getelementptr inbounds nuw i8, ptr %13, i64 24
  store ptr %21, ptr %22, align 8, !tbaa !30
  store i32 1, ptr %18, align 8, !tbaa !29
  br label %get_sconv.exit

get_sconv.exit:                                   ; preds = %11, %._crit_edge.i, %20
  %.0.i = phi ptr [ %15, %11 ], [ %.pre.i, %._crit_edge.i ], [ %21, %20 ]
  %23 = call i32 @_archive_entry_pathname_l(ptr noundef %1, ptr noundef nonnull %3, ptr noundef nonnull %4, ptr noundef %.0.i) #11
  %.not = icmp eq i32 %23, 0
  br i1 %.not, label %29, label %24

24:                                               ; preds = %get_sconv.exit
  %25 = tail call ptr @__errno_location() #14
  %26 = load i32, ptr %25, align 4, !tbaa !31
  %27 = icmp eq i32 %26, 12
  br i1 %27, label %28, label %29

28:                                               ; preds = %24
  call void (ptr, i32, ptr, ...) @archive_set_error(ptr noundef nonnull %0, i32 noundef 12, ptr noundef nonnull @.str.7) #11
  br label %49

29:                                               ; preds = %24, %get_sconv.exit
  %30 = load i64, ptr %4, align 8, !tbaa !32
  %31 = icmp eq i64 %30, 0
  %32 = load ptr, ptr %3, align 8
  %33 = icmp eq ptr %32, null
  %or.cond = select i1 %31, i1 true, i1 %33
  br i1 %or.cond, label %37, label %34

34:                                               ; preds = %29
  %35 = load i8, ptr %32, align 1, !tbaa !26
  %36 = icmp eq i8 %35, 0
  br i1 %36, label %37, label %38

37:                                               ; preds = %34, %29
  call void (ptr, i32, ptr, ...) @archive_set_error(ptr noundef nonnull %0, i32 noundef -1, ptr noundef nonnull @.str.8) #11
  br label %49

38:                                               ; preds = %34
  %39 = call ptr @archive_entry_hardlink(ptr noundef %1) #11
  %40 = icmp eq ptr %39, null
  br i1 %40, label %41, label %47

41:                                               ; preds = %38
  %42 = call i32 @archive_entry_size_is_set(ptr noundef %1) #11
  %.not15 = icmp eq i32 %42, 0
  br i1 %.not15, label %46, label %43

43:                                               ; preds = %41
  %44 = call i64 @archive_entry_size(ptr noundef %1) #11
  %45 = icmp slt i64 %44, 0
  br i1 %45, label %46, label %47

46:                                               ; preds = %43, %41
  call void (ptr, i32, ptr, ...) @archive_set_error(ptr noundef nonnull %0, i32 noundef -1, ptr noundef nonnull @.str.9) #11
  br label %49

47:                                               ; preds = %43, %38
  %48 = call fastcc i32 @write_header(ptr noundef nonnull %0, ptr noundef %1)
  br label %49

49:                                               ; preds = %47, %46, %37, %28, %10
  %.0 = phi i32 [ -25, %10 ], [ -30, %28 ], [ -25, %37 ], [ -25, %46 ], [ %48, %47 ]
  call void @llvm.lifetime.end.p0(i64 8, ptr nonnull %4) #11
  call void @llvm.lifetime.end.p0(i64 8, ptr nonnull %3) #11
  ret i32 %.0
}